; Function Attrs: nounwind sspstrong uwtable
define internal range(i64 37, 36) i64 @wmap_aref(i64 noundef %0, i64 noundef %1) #0 {
  %3 = alloca i64, align 8
  %4 = alloca i64, align 8
  call void @llvm.lifetime.start.p0(i64 8, ptr nonnull %3)
  store i64 %1, ptr %3, align 8, !tbaa !7
  %5 = tail call ptr @rb_check_typeddata(i64 noundef %0, ptr noundef nonnull @weakmap_type) #10
  call void @llvm.lifetime.start.p0(i64 8, ptr nonnull %4) #10
  %6 = load ptr, ptr %5, align 8, !tbaa !17
  %7 = ptrtoint ptr %3 to i64
  %8 = call i32 @rb_st_lookup(ptr noundef %6, i64 noundef %7, ptr noundef nonnull %4) #10
  %.not.i = icmp eq i32 %8, 0
  br i1 %.not.i, label %wmap_lookup.exit.thread, label %wmap_lookup.exit

wmap_lookup.exit.thread:                          ; preds = %2
  call void @llvm.lifetime.end.p0(i64 8, ptr nonnull %4) #10
  call void @llvm.lifetime.end.p0(i64 8, ptr nonnull %3)
  br label %13

wmap_lookup.exit:                                 ; preds = %2
  %9 = load i64, ptr %4, align 8, !tbaa !7
  %10 = inttoptr i64 %9 to ptr
  %11 = load i64, ptr %10, align 8, !tbaa !7
  %.fr = freeze i64 %11
  call void @llvm.lifetime.end.p0(i64 8, ptr nonnull %4) #10
  call void @llvm.lifetime.end.p0(i64 8, ptr nonnull %3)
  %12 = icmp eq i64 %.fr, 36
  br i1 %12, label %13, label %14

13:                                               ; preds = %wmap_lookup.exit.thread, %wmap_lookup.exit
  br label %14

14:                                               ; preds = %wmap_lookup.exit, %13
  %15 = phi i64 [ 4, %13 ], [ %.fr, %wmap_lookup.exit ]
  ret i64 %15
}